; Function Attrs: mustprogress nounwind willreturn uwtable
define hidden i64 @sk_insert(ptr noundef captures(address_is_null) %0, ptr noundef %1, i64 noundef %2) local_unnamed_addr #6 {
  %4 = icmp eq ptr %0, null
  br i1 %4, label %.thread, label %5

5:                                                ; preds = %3
  %6 = getelementptr inbounds nuw i8, ptr %0, i64 24
  %7 = load i64, ptr %6, align 8, !tbaa !13
  %8 = load i64, ptr %0, align 8, !tbaa !14
  %9 = add i64 %8, 1
  %.not = icmp ugt i64 %7, %9
  br i1 %.not, label %27, label %10

10:                                               ; preds = %5
  %11 = icmp slt i64 %7, 0
  br i1 %11, label %16, label %12

12:                                               ; preds = %10
  %13 = shl nuw i64 %7, 1
  %14 = shl i64 %7, 4
  %15 = lshr exact i64 %14, 3
  %.not49 = icmp eq i64 %15, %13
  br i1 %.not49, label %19, label %16

16:                                               ; preds = %12, %10
  %17 = add i64 %7, 1
  %18 = shl i64 %17, 3
  %.pre55 = and i64 %17, 2305843009213693951
  br label %19

19:                                               ; preds = %16, %12
  %.pre-phi = phi i64 [ %.pre55, %16 ], [ %15, %12 ]
  %.042 = phi i64 [ %17, %16 ], [ %13, %12 ]
  %.041 = phi i64 [ %18, %16 ], [ %14, %12 ]
  %20 = icmp uge i64 %.042, %7
  %.not50 = icmp eq i64 %.pre-phi, %.042
  %or.cond = and i1 %20, %.not50
  br i1 %or.cond, label %21, label %.thread

21:                                               ; preds = %19
  %22 = getelementptr inbounds nuw i8, ptr %0, i64 8
  %23 = load ptr, ptr %22, align 8, !tbaa !6
  %24 = tail call ptr @realloc(ptr noundef %23, i64 noundef %.041) #18
  %25 = icmp eq ptr %24, null
  br i1 %25, label %.thread, label %26

26:                                               ; preds = %21
  store ptr %24, ptr %22, align 8, !tbaa !6
  store i64 %.042, ptr %6, align 8, !tbaa !13
  %.pre = load i64, ptr %0, align 8, !tbaa !14
  br label %27

27:                                               ; preds = %26, %5
  %28 = phi i64 [ %.pre, %26 ], [ %8, %5 ]
  %.not51 = icmp ult i64 %2, %28
  %29 = getelementptr inbounds nuw i8, ptr %0, i64 8
  %30 = load ptr, ptr %29, align 8, !tbaa !6
  br i1 %.not51, label %33, label %31

31:                                               ; preds = %27
  %32 = getelementptr inbounds nuw ptr, ptr %30, i64 %28
  store ptr %1, ptr %32, align 8, !tbaa !16
  br label %40

33:                                               ; preds = %27
  %34 = getelementptr ptr, ptr %30, i64 %2
  %35 = getelementptr i8, ptr %34, i64 8
  %36 = sub nuw i64 %28, %2
  %37 = shl i64 %36, 3
  tail call void @llvm.memmove.p0.p0.i64(ptr align 8 %35, ptr align 8 %34, i64 %37, i1 false)
  %38 = load ptr, ptr %29, align 8, !tbaa !6
  %39 = getelementptr inbounds nuw ptr, ptr %38, i64 %2
  store ptr %1, ptr %39, align 8, !tbaa !16
  %.pre54 = load i64, ptr %0, align 8, !tbaa !14
  br label %40

40:                                               ; preds = %33, %31
  %41 = phi i64 [ %.pre54, %33 ], [ %28, %31 ]
  %42 = add i64 %41, 1
  store i64 %42, ptr %0, align 8, !tbaa !14
  %43 = getelementptr inbounds nuw i8, ptr %0, i64 16
  store i64 0, ptr %43, align 8, !tbaa !15
  br label %.thread

.thread:                                          ; preds = %21, %19, %3, %40
  %.040 = phi i64 [ %42, %40 ], [ 0, %3 ], [ 0, %19 ], [ 0, %21 ]
  ret i64 %.040
}